(dp0
I65878
NsI12295
NsI65879
NsI6160
NsI6161
NsI6162
NsI6163
NsI6164
NsI6165
NsI6166
NsI6167
NsI6168
NsI6169
NsI65882
NsI12321
NsI12322
NsI12323
NsI12324
NsI12325
NsI12326
NsI12327
NsI12328
NsI12329
NsI1638
NsI65885
NsI48
NsI49
NsI50
NsI51
NsI52
NsI53
NsI54
NsI55
NsI56
NsI57
NsI12346
NsI65887
NsI4160
NsI4161
NsI4162
NsI4163
NsI4164
NsI4165
NsI4166
NsI4167
NsI4168
NsI4169
NsI65890
NsI65891
NsI67672
NsI67673
NsI67674
NsI67675
NsI67676
NsI67677
NsI67678
NsI67679
NsI8550
NsI7232
NsI8551
NsI8304
NsI8552
NsI8308
NsI8309
NsI8310
NsI8311
NsI8312
NsI8313
NsI8554
NsI8320
NsI8321
NsI8322
NsI8323
NsI8324
NsI8325
NsI8326
NsI8327
NsI8328
NsI8329
NsI8557
NsI4240
NsI4241
NsI4242
NsI4243
NsI4244
NsI4245
NsI4246
NsI4247
NsI4248
NsI4249
NsI8559
NsI65904
NsI65905
NsI65906
NsI178
NsI179
NsI185
NsI188
NsI189
NsI190
NsI65909
NsI65910
NsI65911
NsI43216
NsI43217
NsI43218
NsI43219
NsI43220
NsI43221
NsI43222
NsI43223
NsI43224
NsI43225
NsI120812
NsI43264
NsI43265
NsI43266
NsI43267
NsI43268
NsI43269
NsI43270
NsI43271
NsI43272
NsI43273
NsI65802
NsI65803
NsI65804
NsI65805
NsI65806
NsI65807
NsI65808
NsI65809
NsI65810
NsI65811
NsI65812
NsI65813
NsI67862
NsI65815
NsI65816
NsI65817
NsI65818
NsI65819
NsI65820
NsI65821
NsI65822
NsI65823
NsI65824
NsI43056
NsI65826
NsI65827
NsI65828
NsI65829
NsI65830
NsI43057
NsI65832
NsI65833
NsI65834
NsI65835
NsI65836
NsI65837
NsI65838
NsI65839
NsI65840
NsI65841
NsI65842
NsI43059
NsI43060
NsI43061
NsI65856
NsI65857
NsI65858
NsI65859
NsI65860
NsI65861
NsI6470
NsI6471
NsI6472
NsI6473
NsI6474
NsI6475
NsI6476
NsI6477
NsI6478
NsI6479
NsI8528
NsI8529
NsI8530
NsI8531
NsI8532
NsI65877
NsI8534
NsI8535
NsI65880
NsI65881
NsI8538
NsI65883
NsI8540
NsI8541
NsI8542
NsI8543
NsI65888
NsI8545
NsI8546
NsI8547
NsI8548
NsI8549
NsI2406
NsI2407
NsI2408
NsI2409
NsI2410
NsI2411
NsI2412
NsI2413
NsI2414
NsI2415
NsI8560
NsI8561
NsI8562
NsI8563
NsI8564
NsI8565
NsI8566
NsI8567
NsI8568
NsI8569
NsI8570
NsI8571
NsI8572
NsI8573
NsI8574
NsI8575
NsI8576
NsI8577
NsI8578
NsI42731
NsI8581
NsI8582
NsI8583
NsI8584
NsI8585
NsI65930
NsI7234
NsI12690
NsI12691
NsI12692
NsI12693
NsI7236
NsI5871
NsI7237
NsI1776
NsI7238
NsI7239
NsI7240
NsI7241
NsI8539
NsI65892
NsI6608
NsI6609
NsI6610
NsI6611
NsI6612
NsI6613
NsI6614
NsI6615
NsI6616
NsI6617
NsI6618
NsI7248
NsI2534
NsI65893
NsI2536
NsI2537
NsI2538
NsI2539
NsI2540
NsI2541
NsI2542
NsI2543
NsI7251
NsI2548
NsI2549
NsI2550
NsI2551
NsI2552
NsI2553
NsI120826
NsI7253
NsI65894
NsI7255
NsI7256
NsI7257
NsI12832
NsI12833
NsI12834
NsI12835
NsI12836
NsI12837
NsI12838
NsI12839
NsI12840
NsI12841
NsI68160
NsI65896
NsI68162
NsI68163
NsI68164
NsI68165
NsI68166
NsI68167
NsI9314
NsI43600
NsI12881
NsI12882
NsI12883
NsI12884
NsI12885
NsI12886
NsI12887
NsI12888
NsI12889
NsI12890
NsI12891
NsI12892
NsI12893
NsI12894
NsI12895
NsI3174
NsI2662
NsI2663
NsI2664
NsI2665
NsI2666
NsI2667
NsI2668
NsI2669
NsI2670
NsI2671
NsI3176
NsI3177
NsI3178
NsI68222
NsI6784
NsI6785
NsI6786
NsI6787
NsI6788
NsI6789
NsI6790
NsI6791
NsI6792
NsI6793
NsI3181
NsI6800
NsI6801
NsI6802
NsI6803
NsI6804
NsI6805
NsI6806
NsI6807
NsI6808
NsI6809
NsI3183
NsI7233
NsI12977
NsI12978
NsI12979
NsI12980
NsI12981
NsI12982
NsI12983
NsI12984
NsI12985
NsI12986
NsI12987
NsI12988
NsI12989
NsI12990
NsI12991
NsI7252
NsI3192
NsI3193
NsI3194
NsI3877
NsI43472
NsI3195
NsI2790
NsI2791
NsI2792
NsI2793
NsI2794
NsI2795
NsI2796
NsI2797
NsI2798
NsI2799
NsI65895
NsI43475
NsI3198
NsI43476
NsI7254
NsI43477
NsI3883
NsI43478
NsI43479
NsI43480
NsI65903
NsI43481
NsI66336
NsI66337
NsI66338
NsI66339
NsI3889
NsI3891
NsI66369
NsI7249
NsI66378
NsI6992
NsI6993
NsI6994
NsI6995
NsI6996
NsI6997
NsI6998
NsI6999
NsI7000
NsI7001
NsI68442
NsI68443
NsI68444
NsI68445
NsI68446
NsI8553
NsI119648
NsI119649
NsI119650
NsI119651
NsI119652
NsI119653
NsI2918
NsI2919
NsI119656
NsI4969
NsI2922
NsI2923
NsI2924
NsI2925
NsI2926
NsI2927
NsI4976
NsI4977
NsI4978
NsI4979
NsI4980
NsI4981
NsI4982
NsI4983
NsI4984
NsI4985
NsI4986
NsI4987
NsI68476
NsI68477
NsI68478
NsI68479
NsI44016
NsI65907
NsI8555
NsI6136
NsI8544
NsI65908
NsI6130
NsI7088
NsI7089
NsI7090
NsI7091
NsI7092
NsI7093
NsI7094
NsI7095
NsI7096
NsI8556
NsI66513
NsI43473
NsI66515
NsI66516
NsI66517
NsI4971
NsI3046
NsI3047
NsI3048
NsI3049
NsI3050
NsI3051
NsI3052
NsI3053
NsI3054
NsI3055
NsI43474
NsI3057
NsI3058
NsI44019
NsI44020
NsI8558
NsI44022
NsI44023
NsI44024
NsI44025
NsI74752
NsI74753
NsI74754
NsI74755
NsI74756
NsI74757
NsI74758
NsI74759
NsI74760
NsI74761
NsI74762
NsI74763
NsI74764
NsI74765
NsI74766
NsI74767
NsI74768
NsI74769
NsI74770
NsI74771
NsI74772
NsI74773
NsI74774
NsI74775
NsI74776
NsI74777
NsI74778
NsI74779
NsI74780
NsI74781
NsI74782
NsI74783
NsI74784
NsI74785
NsI74786
NsI74787
NsI74788
NsI74789
NsI74790
NsI74791
NsI74792
NsI74793
NsI74794
NsI74795
NsI74796
NsI74797
NsI74798
NsI74799
NsI74800
NsI74801
NsI74802
NsI74803
NsI74804
NsI74805
NsI74806
NsI74807
NsI74808
NsI74809
NsI74810
NsI74811
NsI74812
NsI74813
NsI74814
NsI74815
NsI74816
NsI74817
NsI74818
NsI7235
NsI74820
NsI74821
NsI74822
NsI74823
NsI74824
NsI74825
NsI74826
NsI74827
NsI74828
NsI74829
NsI74830
NsI74831
NsI74832
NsI74833
NsI74834
NsI74835
NsI74836
NsI74837
NsI74838
NsI74839
NsI74840
NsI74841
NsI74842
NsI74843
NsI74844
NsI74845
NsI74846
NsI74847
NsI9312
NsI74849
NsI74850
NsI9315
NsI9316
NsI9317
NsI9318
NsI3175
NsI9320
NsI9321
NsI9322
NsI3179
NsI3180
NsI9325
NsI3182
NsI9327
NsI9328
NsI9329
NsI9330
NsI9331
NsI9332
NsI9333
NsI9334
NsI9335
NsI9336
NsI9337
NsI9338
NsI9339
NsI3196
NsI4970
NsI9342
NsI9343
NsI9344
NsI9345
NsI9346
NsI9347
NsI9348
NsI9349
NsI9350
NsI9351
NsI9352
NsI9353
NsI9354
NsI9355
NsI9356
NsI9357
NsI9358
NsI9359
NsI9360
NsI9361
NsI9362
NsI9363
NsI9364
NsI9365
NsI9366
NsI9367
NsI9368
NsI9369
NsI9370
NsI9371
NsI7250
NsI66720
NsI66721
NsI66722
NsI66723
NsI66724
NsI66725
NsI66726
NsI66727
NsI66728
NsI66729
NsI68440
NsI65898
NsI119655
NsI68441
NsI68472
NsI68473
NsI68474
NsI68475
NsI65912
NsI3303
NsI3304
NsI4988
NsI3306
NsI3307
NsI3308
NsI3309
NsI3310
NsI3311
NsI9456
NsI9457
NsI9458
NsI9459
NsI9460
NsI9461
NsI9462
NsI9463
NsI9464
NsI9465
NsI9466
NsI9467
NsI9468
NsI9469
NsI9470
NsI9471
NsI119658
NsI12932
NsI2920
NsI10117
NsI42734
NsI8533
NsI119659
NsI9319
NsI65899
NsI119660
NsI74819
NsI9341
NsI3302
NsI3430
NsI3431
NsI3432
NsI3433
NsI3434
NsI3435
NsI3436
NsI3437
NsI3438
NsI12345
NsI3440
NsI3441
NsI3442
NsI3443
NsI3444
NsI3445
NsI3305
NsI9450
NsI68447
NsI9451
NsI119662
NsI68161
NsI9452
NsI9453
NsI9454
NsI9455
NsI10111
NsI119663
NsI119657
NsI65886
NsI9323
NsI119664
NsI9324
NsI6119
NsI65900
NsI119665
NsI3664
NsI43601
NsI43602
NsI11517
NsI43603
NsI43604
NsI43605
NsI127232
NsI43606
NsI127233
NsI66514
NsI43607
NsI127234
NsI43608
NsI127235
NsI43609
NsI127236
NsI127237
NsI42528
NsI42529
NsI42530
NsI42531
NsI42532
NsI42533
NsI42534
NsI42535
NsI42536
NsI42537
NsI127239
NsI12931
NsI127240
NsI65801
NsI127242
NsI1632
NsI127238
NsI1633
NsI9326
NsI1634
NsI3439
NsI3665
NsI3666
NsI3667
NsI3668
NsI3669
NsI3670
NsI7097
NsI3672
NsI3673
NsI1637
NsI69216
NsI69217
NsI69218
NsI69219
NsI1636
NsI69221
NsI69222
NsI1639
NsI1640
NsI1641
NsI69226
NsI69223
NsI69228
NsI69229
NsI69230
NsI69231
NsI69232
NsI69224
NsI69234
NsI69235
NsI65901
NsI69237
NsI69238
NsI69225
NsI69240
NsI69241
NsI69242
NsI69243
NsI69244
NsI69245
NsI69246
NsI9340
NsI69227
NsI65814
NsI67863
NsI67864
NsI1987
NsI67865
NsI127241
NsI67866
NsI6133
NsI12344
NsI69220
NsI67867
NsI69233
NsI3671
NsI9313
NsI2921
NsI1993
NsI69236
NsI65825
NsI69239
NsI65897
NsI119661
NsI3792
NsI3793
NsI3794
NsI3795
NsI3796
NsI3797
NsI3798
NsI3799
NsI3800
NsI3801
NsI6137
NsI120783
NsI65799
NsI42729
NsI6128
NsI42726
NsI42727
NsI42728
NsI8536
NsI42730
NsI65831
NsI42732
NsI42733
NsI5870
NsI42735
NsI5872
NsI1777
NsI1778
NsI1779
NsI1780
NsI1781
NsI1782
NsI1783
NsI1784
NsI1785
NsI65800
NsI12928
NsI6129
NsI2535
NsI12929
NsI65902
NsI120791
NsI12930
NsI3197
NsI65296
NsI65297
NsI65298
NsI65299
NsI65300
NsI65301
NsI65302
NsI65303
NsI65304
NsI65305
NsI12933
NsI3872
NsI3873
NsI3874
NsI3875
NsI3876
NsI12934
NsI3878
NsI3879
NsI3880
NsI3881
NsI3882
NsI12935
NsI3884
NsI3885
NsI3886
NsI3887
NsI3888
NsI12936
NsI3890
NsI65843
NsI65870
NsI12937
NsI68221
NsI6112
NsI43058
NsI6113
NsI4972
NsI6114
NsI65871
NsI6115
NsI6116
NsI119654
NsI6117
NsI6118
NsI65884
NsI4973
NsI120807
NsI65889
NsI65872
NsI6120
NsI10102
NsI10103
NsI10104
NsI10105
NsI10106
NsI10107
NsI10108
NsI10109
NsI10110
NsI8537
NsI10112
NsI10113
NsI10114
NsI10115
NsI10116
NsI4974
NsI10118
NsI10119
NsI10120
NsI10121
NsI10122
NsI10123
NsI10124
NsI10125
NsI10126
NsI10127
NsI10128
NsI10129
NsI10130
NsI10131
NsI6134
NsI3056
NsI4975
NsI65862
NsI44017
NsI65863
NsI65874
NsI44018
NsI65864
NsI6131
NsI74848
NsI65865
NsI6132
NsI65866
NsI44021
NsI1984
NsI1985
NsI1986
NsI65867
NsI1988
NsI1989
NsI1990
NsI1991
NsI1992
NsI65868
NsI65875
NsI6135
NsI120782
NsI65869
NsI120784
NsI120785
NsI120786
NsI1635
NsI120788
NsI120789
NsI120790
NsI120825
NsI120792
NsI120793
NsI120794
NsI120795
NsI120796
NsI120797
NsI120798
NsI120799
NsI120800
NsI120801
NsI120802
NsI120803
NsI120804
NsI120805
NsI120806
NsI65873
NsI120808
NsI120809
NsI120810
NsI120811
NsI120787
NsI120813
NsI120814
NsI120815
NsI120816
NsI120817
NsI120818
NsI120819
NsI120820
NsI120821
NsI120822
NsI120823
NsI120824
NsI65876
NsI6121
NsI120827
NsI120828
NsI120829
NsI120830
NsI120831
Ns.